target datalayout = "e-m:e-p270:32:32-p271:32:32-p272:64:64-i64:64-i128:128-f80:128-n8:16:32:64-S128"
target triple = "x86_64-pc-linux-gnu"

%"struct.cv::bioinspired::SegmentationParameters" = type { float, float, float, float, float, float, float, float }
%"class.cv::bioinspired::TransientAreasSegmentationModuleImpl" = type { ptr, %"class.cv::bioinspired::BasicRetinaFilter", %"struct.cv::bioinspired::SegmentationParameters", %"class.std::valarray", %"class.std::valarray", %"class.std::valarray.4", ptr, ptr, i32, %"class.cv::Mat", %"class.cv::Mat" }
%"class.cv::bioinspired::BasicRetinaFilter" = type { %"class.cv::bioinspired::TemplateBuffer", %"class.std::valarray", i32, i32, %"class.std::valarray", %"class.std::valarray", %"class.std::valarray", float, float, float, float, float, float, float, float }
%"class.cv::bioinspired::TemplateBuffer" = type { ptr, %"class.std::valarray", i64, i64, i64, i64, i64 }
%"class.std::valarray" = type { i64, ptr }
%"class.std::valarray.4" = type { i64, ptr }
%"class.cv::Mat" = type { i32, i32, i32, i32, ptr, ptr, ptr, ptr, ptr, ptr, %"struct.cv::MatSize", %"struct.cv::MatStep" }
%"struct.cv::MatSize" = type { ptr }
%"struct.cv::MatStep" = type { ptr, [2 x i64] }

; Function Attrs: inlinehint mustprogress uwtable
define linkonce_odr hidden noundef nonnull align 8 dereferenceable(64) ptr @_ZN2cv11bioinspired14TemplateBufferIfEaSERKf(ptr noundef nonnull align 8 dereferenceable(64) %0, ptr noundef nonnull align 4 dereferenceable(4) %1) #6 comdat align 2 {
  %3 = alloca ptr, align 8
  %4 = alloca ptr, align 8
  store ptr %0, ptr %3, align 8, !tbaa !120
  store ptr %1, ptr %4, align 8, !tbaa !52
  %5 = load ptr, ptr %3, align 8
  %6 = getelementptr inbounds i8, ptr %5, i64 8
  %7 = load ptr, ptr %4, align 8, !tbaa !52
  %8 = call noundef nonnull align 8 dereferenceable(16) ptr @_ZNSt8valarrayIfEaSERKf(ptr noundef nonnull align 8 dereferenceable(16) %6, ptr noundef nonnull align 4 dereferenceable(4) %7)
  ret ptr %5
}

; Function Attrs: inlinehint mustprogress nounwind uwtable
define linkonce_odr void @_ZSt15__valarray_fillIbEvPT_mRKS0_(ptr noalias noundef %0, i64 noundef %1, ptr noundef nonnull align 1 dereferenceable(1) %2) #7 comdat {
  %4 = alloca ptr, align 8
  %5 = alloca i64, align 8
  %6 = alloca ptr, align 8
  store ptr %0, ptr %4, align 8, !tbaa !53
  store i64 %1, ptr %5, align 8, !tbaa !36
  store ptr %2, ptr %6, align 8, !tbaa !53
  br label %7

7:                                                ; preds = %11, %3
  %8 = load i64, ptr %5, align 8, !tbaa !36
  %9 = add i64 %8, -1
  store i64 %9, ptr %5, align 8, !tbaa !36
  %10 = icmp ne i64 %8, 0
  br i1 %10, label %11, label %18

11:                                               ; preds = %7
  %12 = load ptr, ptr %6, align 8, !tbaa !53
  %13 = load i8, ptr %12, align 1, !tbaa !48, !range !56, !noundef !57
  %14 = trunc i8 %13 to i1
  %15 = load ptr, ptr %4, align 8, !tbaa !53
  %16 = getelementptr inbounds nuw i8, ptr %15, i32 1
  store ptr %16, ptr %4, align 8, !tbaa !53
  %17 = zext i1 %14 to i8
  store i8 %17, ptr %15, align 1, !tbaa !48
  br label %7, !llvm.loop !249

18:                                               ; preds = %7
  ret void
}

; Function Attrs: inlinehint mustprogress nounwind uwtable
define linkonce_odr void @_ZSt15__valarray_fillIfEvPT_mRKS0_(ptr noalias noundef %0, i64 noundef %1, ptr noundef nonnull align 4 dereferenceable(4) %2) #7 comdat {
  %4 = alloca ptr, align 8
  %5 = alloca i64, align 8
  %6 = alloca ptr, align 8
  store ptr %0, ptr %4, align 8, !tbaa !52
  store i64 %1, ptr %5, align 8, !tbaa !36
  store ptr %2, ptr %6, align 8, !tbaa !52
  br label %7

7:                                                ; preds = %11, %3
  %8 = load i64, ptr %5, align 8, !tbaa !36
  %9 = add i64 %8, -1
  store i64 %9, ptr %5, align 8, !tbaa !36
  %10 = icmp ne i64 %8, 0
  br i1 %10, label %11, label %16

11:                                               ; preds = %7
  %12 = load ptr, ptr %6, align 8, !tbaa !52
  %13 = load float, ptr %12, align 4, !tbaa !23
  %14 = load ptr, ptr %4, align 8, !tbaa !52
  %15 = getelementptr inbounds nuw float, ptr %14, i32 1
  store ptr %15, ptr %4, align 8, !tbaa !52
  store float %13, ptr %14, align 4, !tbaa !23
  br label %7, !llvm.loop !183

16:                                               ; preds = %7
  ret void
}

; Function Attrs: inlinehint mustprogress uwtable
define linkonce_odr hidden void @_ZN2cv11bioinspired17BasicRetinaFilter20clearSecondaryBufferEv(ptr noundef nonnull align 8 dereferenceable(168) %0) #6 comdat align 2 {
  %2 = alloca ptr, align 8
  %3 = alloca float, align 4
  store ptr %0, ptr %2, align 8, !tbaa !50
  %4 = load ptr, ptr %2, align 8
  call void @llvm.lifetime.start.p0(i64 4, ptr %3) #3
  store float 0.000000e+00, ptr %3, align 4, !tbaa !23
  %5 = getelementptr inbounds nuw %"class.cv::bioinspired::BasicRetinaFilter", ptr %4, i32 0, i32 1
  %6 = call noundef nonnull align 8 dereferenceable(16) ptr @_ZNSt8valarrayIfEaSERKf(ptr noundef nonnull align 8 dereferenceable(16) %5, ptr noundef nonnull align 4 dereferenceable(4) %3)
  call void @llvm.lifetime.end.p0(i64 4, ptr %3) #3
  ret void
}

; Function Attrs: inlinehint mustprogress uwtable
define linkonce_odr hidden void @_ZN2cv11bioinspired17BasicRetinaFilter17clearOutputBufferEv(ptr noundef nonnull align 8 dereferenceable(168) %0) #6 comdat align 2 {
  %2 = alloca ptr, align 8
  %3 = alloca float, align 4
  store ptr %0, ptr %2, align 8, !tbaa !50
  %4 = load ptr, ptr %2, align 8
  call void @llvm.lifetime.start.p0(i64 4, ptr %3) #3
  store float 0.000000e+00, ptr %3, align 4, !tbaa !23
  %5 = getelementptr inbounds nuw %"class.cv::bioinspired::BasicRetinaFilter", ptr %4, i32 0, i32 0
  %6 = call noundef nonnull align 8 dereferenceable(64) ptr @_ZN2cv11bioinspired14TemplateBufferIfEaSERKf(ptr noundef nonnull align 8 dereferenceable(64) %5, ptr noundef nonnull align 4 dereferenceable(4) %3)
  call void @llvm.lifetime.end.p0(i64 4, ptr %3) #3
  ret void
}

; Function Attrs: inlinehint mustprogress uwtable
define linkonce_odr hidden noundef nonnull align 8 dereferenceable(16) ptr @_ZNSt8valarrayIbEaSERKb(ptr noundef nonnull align 8 dereferenceable(16) %0, ptr noundef nonnull align 1 dereferenceable(1) %1) #6 comdat align 2 {
  %3 = alloca ptr, align 8
  %4 = alloca ptr, align 8
  store ptr %0, ptr %3, align 8, !tbaa !42
  store ptr %1, ptr %4, align 8, !tbaa !53
  %5 = load ptr, ptr %3, align 8
  %6 = getelementptr inbounds nuw %"class.std::valarray.4", ptr %5, i32 0, i32 1
  %7 = load ptr, ptr %6, align 8, !tbaa !47
  %8 = getelementptr inbounds nuw %"class.std::valarray.4", ptr %5, i32 0, i32 0
  %9 = load i64, ptr %8, align 8, !tbaa !44
  %10 = load ptr, ptr %4, align 8, !tbaa !53
  call void @_ZSt15__valarray_fillIbEvPT_mRKS0_(ptr noundef %7, i64 noundef %9, ptr noundef nonnull align 1 dereferenceable(1) %10)
  ret ptr %5
}

; Function Attrs: inlinehint mustprogress uwtable
define linkonce_odr hidden noundef nonnull align 8 dereferenceable(16) ptr @_ZNSt8valarrayIfEaSERKf(ptr noundef nonnull align 8 dereferenceable(16) %0, ptr noundef nonnull align 4 dereferenceable(4) %1) #6 comdat align 2 {
  %3 = alloca ptr, align 8
  %4 = alloca ptr, align 8
  store ptr %0, ptr %3, align 8, !tbaa !20
  store ptr %1, ptr %4, align 8, !tbaa !52
  %5 = load ptr, ptr %3, align 8
  %6 = getelementptr inbounds nuw %"class.std::valarray", ptr %5, i32 0, i32 1
  %7 = load ptr, ptr %6, align 8, !tbaa !41
  %8 = getelementptr inbounds nuw %"class.std::valarray", ptr %5, i32 0, i32 0
  %9 = load i64, ptr %8, align 8, !tbaa !38
  %10 = load ptr, ptr %4, align 8, !tbaa !52
  call void @_ZSt15__valarray_fillIfEvPT_mRKS0_(ptr noundef %7, i64 noundef %9, ptr noundef nonnull align 4 dereferenceable(4) %10)
  ret ptr %5
}

; Function Attrs: inlinehint mustprogress uwtable
define linkonce_odr hidden void @_ZN2cv11bioinspired17BasicRetinaFilter15clearAllBuffersEv(ptr noundef nonnull align 8 dereferenceable(168) %0) #6 comdat align 2 {
  %2 = alloca ptr, align 8
  store ptr %0, ptr %2, align 8, !tbaa !50
  %3 = load ptr, ptr %2, align 8
  call void @_ZN2cv11bioinspired17BasicRetinaFilter17clearOutputBufferEv(ptr noundef nonnull align 8 dereferenceable(168) %3)
  call void @_ZN2cv11bioinspired17BasicRetinaFilter20clearSecondaryBufferEv(ptr noundef nonnull align 8 dereferenceable(168) %3)
  ret void
}

; Function Attrs: mustprogress uwtable
define hidden void @_ZN2cv11bioinspired36TransientAreasSegmentationModuleImpl15clearAllBuffersEv(ptr noundef nonnull align 8 dereferenceable(472) %0) #4 align 2 {
  %2 = alloca ptr, align 8
  %3 = alloca float, align 4
  %4 = alloca i8, align 1
  store ptr %0, ptr %2, align 8, !tbaa !12
  %5 = load ptr, ptr %2, align 8
  %6 = getelementptr inbounds i8, ptr %5, i64 8
  call void @_ZN2cv11bioinspired17BasicRetinaFilter15clearAllBuffersEv(ptr noundef nonnull align 8 dereferenceable(168) %6)
  call void @llvm.lifetime.start.p0(i64 4, ptr %3) #3
  store float 0.000000e+00, ptr %3, align 4, !tbaa !23
  %7 = getelementptr inbounds nuw %"class.cv::bioinspired::TransientAreasSegmentationModuleImpl", ptr %5, i32 0, i32 4
  %8 = call noundef nonnull align 8 dereferenceable(16) ptr @_ZNSt8valarrayIfEaSERKf(ptr noundef nonnull align 8 dereferenceable(16) %7, ptr noundef nonnull align 4 dereferenceable(4) %3)
  call void @llvm.lifetime.end.p0(i64 4, ptr %3) #3
  call void @llvm.lifetime.start.p0(i64 1, ptr %4) #3
  store i8 0, ptr %4, align 1, !tbaa !48
  %9 = getelementptr inbounds nuw %"class.cv::bioinspired::TransientAreasSegmentationModuleImpl", ptr %5, i32 0, i32 5
  %10 = call noundef nonnull align 8 dereferenceable(16) ptr @_ZNSt8valarrayIbEaSERKb(ptr noundef nonnull align 8 dereferenceable(16) %9, ptr noundef nonnull align 1 dereferenceable(1) %4)
  call void @llvm.lifetime.end.p0(i64 1, ptr %4) #3
  ret void
}