; Function Attrs: mustprogress nofree norecurse nosync nounwind willreturn memory(write, argmem: readwrite, inaccessiblemem: none) uwtable
define hidden void @_ZN2cv11bioinspired36TransientAreasSegmentationModuleImpl15clearAllBuffersEv(ptr noundef nonnull readonly align 8 captures(none) dereferenceable(472) %0) local_unnamed_addr #6 align 2 {
  %2 = getelementptr inbounds nuw i8, ptr %0, i64 16
  %3 = load i64, ptr %2, align 8, !tbaa !33
  %.not3.i.i.i.i.i = icmp eq i64 %3, 0
  br i1 %.not3.i.i.i.i.i, label %_ZN2cv11bioinspired17BasicRetinaFilter17clearOutputBufferEv.exit.i, label %.lr.ph.i.i.i.preheader.i.i

.lr.ph.i.i.i.preheader.i.i:                       ; preds = %1
  %4 = getelementptr inbounds nuw i8, ptr %0, i64 24
  %5 = load ptr, ptr %4, align 8, !tbaa !37
  %6 = shl nuw i64 %3, 2
  tail call void @llvm.memset.p0.i64(ptr align 4 %5, i8 0, i64 %6, i1 false), !tbaa !44, !alias.scope !60
  br label %_ZN2cv11bioinspired17BasicRetinaFilter17clearOutputBufferEv.exit.i

_ZN2cv11bioinspired17BasicRetinaFilter17clearOutputBufferEv.exit.i: ; preds = %.lr.ph.i.i.i.preheader.i.i, %1
  %7 = getelementptr inbounds nuw i8, ptr %0, i64 72
  %8 = load i64, ptr %7, align 8, !tbaa !33
  %.not3.i.i.i.i = icmp eq i64 %8, 0
  br i1 %.not3.i.i.i.i, label %_ZN2cv11bioinspired17BasicRetinaFilter15clearAllBuffersEv.exit, label %.lr.ph.i.i.preheader.i.i

.lr.ph.i.i.preheader.i.i:                         ; preds = %_ZN2cv11bioinspired17BasicRetinaFilter17clearOutputBufferEv.exit.i
  %9 = getelementptr inbounds nuw i8, ptr %0, i64 80
  %10 = load ptr, ptr %9, align 8, !tbaa !37
  %11 = shl nuw i64 %8, 2
  tail call void @llvm.memset.p0.i64(ptr align 4 %10, i8 0, i64 %11, i1 false), !tbaa !44, !alias.scope !63
  br label %_ZN2cv11bioinspired17BasicRetinaFilter15clearAllBuffersEv.exit

_ZN2cv11bioinspired17BasicRetinaFilter15clearAllBuffersEv.exit: ; preds = %_ZN2cv11bioinspired17BasicRetinaFilter17clearOutputBufferEv.exit.i, %.lr.ph.i.i.preheader.i.i
  %12 = getelementptr inbounds nuw i8, ptr %0, i64 224
  %13 = load i64, ptr %12, align 8, !tbaa !33
  %.not3.i.i = icmp eq i64 %13, 0
  br i1 %.not3.i.i, label %_ZNSt8valarrayIfEaSERKf.exit, label %.lr.ph.i.i.preheader

.lr.ph.i.i.preheader:                             ; preds = %_ZN2cv11bioinspired17BasicRetinaFilter15clearAllBuffersEv.exit
  %14 = getelementptr inbounds nuw i8, ptr %0, i64 232
  %15 = load ptr, ptr %14, align 8, !tbaa !37
  %16 = shl nuw i64 %13, 2
  tail call void @llvm.memset.p0.i64(ptr align 4 %15, i8 0, i64 %16, i1 false), !tbaa !44, !alias.scope !66
  br label %_ZNSt8valarrayIfEaSERKf.exit

_ZNSt8valarrayIfEaSERKf.exit:                     ; preds = %.lr.ph.i.i.preheader, %_ZN2cv11bioinspired17BasicRetinaFilter15clearAllBuffersEv.exit
  %17 = getelementptr inbounds nuw i8, ptr %0, i64 240
  %18 = load i64, ptr %17, align 8, !tbaa !38
  %.not3.i.i1 = icmp eq i64 %18, 0
  br i1 %.not3.i.i1, label %_ZNSt8valarrayIbEaSERKb.exit, label %.lr.ph.i.i2

.lr.ph.i.i2:                                      ; preds = %_ZNSt8valarrayIfEaSERKf.exit
  %19 = getelementptr inbounds nuw i8, ptr %0, i64 248
  %20 = load ptr, ptr %19, align 8, !tbaa !41
  tail call void @llvm.memset.p0.i64(ptr align 1 %20, i8 0, i64 %18, i1 false), !tbaa !54, !alias.scope !69
  br label %_ZNSt8valarrayIbEaSERKb.exit

_ZNSt8valarrayIbEaSERKb.exit:                     ; preds = %_ZNSt8valarrayIfEaSERKf.exit, %.lr.ph.i.i2
  ret void
}